target datalayout = "e-m:e-p270:32:32-p271:32:32-p272:64:64-i64:64-i128:128-f80:128-n8:16:32:64-S128"
target triple = "x86_64-pc-linux-gnu"

%struct.st__table = type { ptr, ptr, i32, i32, i32, i32, double, ptr }
%struct.st__table_entry = type { ptr, ptr, ptr }

; Function Attrs: nounwind uwtable
define ptr @st__copy(ptr noundef %0) #0 {
  %2 = alloca ptr, align 8
  %3 = alloca ptr, align 8
  %4 = alloca ptr, align 8
  %5 = alloca ptr, align 8
  %6 = alloca ptr, align 8
  %7 = alloca ptr, align 8
  %8 = alloca ptr, align 8
  %9 = alloca i32, align 4
  %10 = alloca i32, align 4
  %11 = alloca i32, align 4
  %12 = alloca i32, align 4
  store ptr %0, ptr %3, align 8, !tbaa !11
  call void @llvm.lifetime.start.p0(i64 8, ptr %4) #6
  call void @llvm.lifetime.start.p0(i64 8, ptr %5) #6
  call void @llvm.lifetime.start.p0(i64 8, ptr %6) #6
  call void @llvm.lifetime.start.p0(i64 8, ptr %7) #6
  call void @llvm.lifetime.start.p0(i64 8, ptr %8) #6
  call void @llvm.lifetime.start.p0(i64 4, ptr %9) #6
  call void @llvm.lifetime.start.p0(i64 4, ptr %10) #6
  call void @llvm.lifetime.start.p0(i64 4, ptr %11) #6
  %13 = load ptr, ptr %3, align 8, !tbaa !11
  %14 = getelementptr inbounds nuw %struct.st__table, ptr %13, i32 0, i32 2
  %15 = load i32, ptr %14, align 8, !tbaa !21
  store i32 %15, ptr %11, align 4, !tbaa !7
  %16 = call noalias ptr @malloc(i64 noundef 48) #7
  store ptr %16, ptr %4, align 8, !tbaa !11
  %17 = load ptr, ptr %4, align 8, !tbaa !11
  %18 = icmp eq ptr %17, null
  br i1 %18, label %19, label %20

19:                                               ; preds = %1
  store ptr null, ptr %2, align 8
  store i32 1, ptr %12, align 4
  br label %144

20:                                               ; preds = %1
  %21 = load ptr, ptr %4, align 8, !tbaa !11
  %22 = load ptr, ptr %3, align 8, !tbaa !11
  call void @llvm.memcpy.p0.p0.i64(ptr align 8 %21, ptr align 8 %22, i64 48, i1 false), !tbaa.struct !50
  %23 = load i32, ptr %11, align 4, !tbaa !7
  %24 = sext i32 %23 to i64
  %25 = mul i64 8, %24
  %26 = call noalias ptr @malloc(i64 noundef %25) #7
  %27 = load ptr, ptr %4, align 8, !tbaa !11
  %28 = getelementptr inbounds nuw %struct.st__table, ptr %27, i32 0, i32 7
  store ptr %26, ptr %28, align 8, !tbaa !22
  %29 = load ptr, ptr %4, align 8, !tbaa !11
  %30 = getelementptr inbounds nuw %struct.st__table, ptr %29, i32 0, i32 7
  %31 = load ptr, ptr %30, align 8, !tbaa !22
  %32 = icmp eq ptr %31, null
  br i1 %32, label %33, label %40

33:                                               ; preds = %20
  %34 = load ptr, ptr %4, align 8, !tbaa !11
  %35 = icmp ne ptr %34, null
  br i1 %35, label %36, label %38

36:                                               ; preds = %33
  %37 = load ptr, ptr %4, align 8, !tbaa !11
  call void @free(ptr noundef %37) #6
  store ptr null, ptr %4, align 8, !tbaa !11
  br label %39

38:                                               ; preds = %33
  br label %39

39:                                               ; preds = %38, %36
  store ptr null, ptr %2, align 8
  store i32 1, ptr %12, align 4
  br label %144

40:                                               ; preds = %20
  store i32 0, ptr %9, align 4, !tbaa !7
  br label %41

41:                                               ; preds = %139, %40
  %42 = load i32, ptr %9, align 4, !tbaa !7
  %43 = load i32, ptr %11, align 4, !tbaa !7
  %44 = icmp slt i32 %42, %43
  br i1 %44, label %45, label %142

45:                                               ; preds = %41
  %46 = load ptr, ptr %4, align 8, !tbaa !11
  %47 = getelementptr inbounds nuw %struct.st__table, ptr %46, i32 0, i32 7
  %48 = load ptr, ptr %47, align 8, !tbaa !22
  %49 = load i32, ptr %9, align 4, !tbaa !7
  %50 = sext i32 %49 to i64
  %51 = getelementptr inbounds ptr, ptr %48, i64 %50
  store ptr null, ptr %51, align 8, !tbaa !23
  %52 = load ptr, ptr %3, align 8, !tbaa !11
  %53 = getelementptr inbounds nuw %struct.st__table, ptr %52, i32 0, i32 7
  %54 = load ptr, ptr %53, align 8, !tbaa !22
  %55 = load i32, ptr %9, align 4, !tbaa !7
  %56 = sext i32 %55 to i64
  %57 = getelementptr inbounds ptr, ptr %54, i64 %56
  %58 = load ptr, ptr %57, align 8, !tbaa !23
  store ptr %58, ptr %5, align 8, !tbaa !23
  br label %59

59:                                               ; preds = %116, %45
  %60 = load ptr, ptr %5, align 8, !tbaa !23
  %61 = icmp ne ptr %60, null
  br i1 %61, label %62, label %138

62:                                               ; preds = %59
  %63 = call noalias ptr @malloc(i64 noundef 24) #7
  store ptr %63, ptr %8, align 8, !tbaa !23
  %64 = load ptr, ptr %8, align 8, !tbaa !23
  %65 = icmp eq ptr %64, null
  br i1 %65, label %66, label %116

66:                                               ; preds = %62
  store i32 0, ptr %10, align 4, !tbaa !7
  br label %67

67:                                               ; preds = %94, %66
  %68 = load i32, ptr %10, align 4, !tbaa !7
  %69 = load i32, ptr %9, align 4, !tbaa !7
  %70 = icmp sle i32 %68, %69
  br i1 %70, label %71, label %97

71:                                               ; preds = %67
  %72 = load ptr, ptr %4, align 8, !tbaa !11
  %73 = getelementptr inbounds nuw %struct.st__table, ptr %72, i32 0, i32 7
  %74 = load ptr, ptr %73, align 8, !tbaa !22
  %75 = load i32, ptr %10, align 4, !tbaa !7
  %76 = sext i32 %75 to i64
  %77 = getelementptr inbounds ptr, ptr %74, i64 %76
  %78 = load ptr, ptr %77, align 8, !tbaa !23
  store ptr %78, ptr %6, align 8, !tbaa !23
  br label %79

79:                                               ; preds = %91, %71
  %80 = load ptr, ptr %6, align 8, !tbaa !23
  %81 = icmp ne ptr %80, null
  br i1 %81, label %82, label %93

82:                                               ; preds = %79
  %83 = load ptr, ptr %6, align 8, !tbaa !23
  %84 = getelementptr inbounds nuw %struct.st__table_entry, ptr %83, i32 0, i32 2
  %85 = load ptr, ptr %84, align 8, !tbaa !27
  store ptr %85, ptr %7, align 8, !tbaa !23
  %86 = load ptr, ptr %6, align 8, !tbaa !23
  %87 = icmp ne ptr %86, null
  br i1 %87, label %88, label %90

88:                                               ; preds = %82
  %89 = load ptr, ptr %6, align 8, !tbaa !23
  call void @free(ptr noundef %89) #6
  store ptr null, ptr %6, align 8, !tbaa !23
  br label %91

90:                                               ; preds = %82
  br label %91

91:                                               ; preds = %90, %88
  %92 = load ptr, ptr %7, align 8, !tbaa !23
  store ptr %92, ptr %6, align 8, !tbaa !23
  br label %79, !llvm.loop !51

93:                                               ; preds = %79
  br label %94

94:                                               ; preds = %93
  %95 = load i32, ptr %10, align 4, !tbaa !7
  %96 = add nsw i32 %95, 1
  store i32 %96, ptr %10, align 4, !tbaa !7
  br label %67, !llvm.loop !52

97:                                               ; preds = %67
  %98 = load ptr, ptr %4, align 8, !tbaa !11
  %99 = getelementptr inbounds nuw %struct.st__table, ptr %98, i32 0, i32 7
  %100 = load ptr, ptr %99, align 8, !tbaa !22
  %101 = icmp ne ptr %100, null
  br i1 %101, label %102, label %108

102:                                              ; preds = %97
  %103 = load ptr, ptr %4, align 8, !tbaa !11
  %104 = getelementptr inbounds nuw %struct.st__table, ptr %103, i32 0, i32 7
  %105 = load ptr, ptr %104, align 8, !tbaa !22
  call void @free(ptr noundef %105) #6
  %106 = load ptr, ptr %4, align 8, !tbaa !11
  %107 = getelementptr inbounds nuw %struct.st__table, ptr %106, i32 0, i32 7
  store ptr null, ptr %107, align 8, !tbaa !22
  br label %109

108:                                              ; preds = %97
  br label %109

109:                                              ; preds = %108, %102
  %110 = load ptr, ptr %4, align 8, !tbaa !11
  %111 = icmp ne ptr %110, null
  br i1 %111, label %112, label %114

112:                                              ; preds = %109
  %113 = load ptr, ptr %4, align 8, !tbaa !11
  call void @free(ptr noundef %113) #6
  store ptr null, ptr %4, align 8, !tbaa !11
  br label %115

114:                                              ; preds = %109
  br label %115

115:                                              ; preds = %114, %112
  store ptr null, ptr %2, align 8
  store i32 1, ptr %12, align 4
  br label %144

116:                                              ; preds = %62
  %117 = load ptr, ptr %8, align 8, !tbaa !23
  %118 = load ptr, ptr %5, align 8, !tbaa !23
  call void @llvm.memcpy.p0.p0.i64(ptr align 8 %117, ptr align 8 %118, i64 24, i1 false), !tbaa.struct !53
  %119 = load ptr, ptr %4, align 8, !tbaa !11
  %120 = getelementptr inbounds nuw %struct.st__table, ptr %119, i32 0, i32 7
  %121 = load ptr, ptr %120, align 8, !tbaa !22
  %122 = load i32, ptr %9, align 4, !tbaa !7
  %123 = sext i32 %122 to i64
  %124 = getelementptr inbounds ptr, ptr %121, i64 %123
  %125 = load ptr, ptr %124, align 8, !tbaa !23
  %126 = load ptr, ptr %8, align 8, !tbaa !23
  %127 = getelementptr inbounds nuw %struct.st__table_entry, ptr %126, i32 0, i32 2
  store ptr %125, ptr %127, align 8, !tbaa !27
  %128 = load ptr, ptr %8, align 8, !tbaa !23
  %129 = load ptr, ptr %4, align 8, !tbaa !11
  %130 = getelementptr inbounds nuw %struct.st__table, ptr %129, i32 0, i32 7
  %131 = load ptr, ptr %130, align 8, !tbaa !22
  %132 = load i32, ptr %9, align 4, !tbaa !7
  %133 = sext i32 %132 to i64
  %134 = getelementptr inbounds ptr, ptr %131, i64 %133
  store ptr %128, ptr %134, align 8, !tbaa !23
  %135 = load ptr, ptr %5, align 8, !tbaa !23
  %136 = getelementptr inbounds nuw %struct.st__table_entry, ptr %135, i32 0, i32 2
  %137 = load ptr, ptr %136, align 8, !tbaa !27
  store ptr %137, ptr %5, align 8, !tbaa !23
  br label %59, !llvm.loop !54

138:                                              ; preds = %59
  br label %139

139:                                              ; preds = %138
  %140 = load i32, ptr %9, align 4, !tbaa !7
  %141 = add nsw i32 %140, 1
  store i32 %141, ptr %9, align 4, !tbaa !7
  br label %41, !llvm.loop !55

142:                                              ; preds = %41
  %143 = load ptr, ptr %4, align 8, !tbaa !11
  store ptr %143, ptr %2, align 8
  store i32 1, ptr %12, align 4
  br label %144

144:                                              ; preds = %142, %115, %39, %19
  call void @llvm.lifetime.end.p0(i64 4, ptr %11) #6
  call void @llvm.lifetime.end.p0(i64 4, ptr %10) #6
  call void @llvm.lifetime.end.p0(i64 4, ptr %9) #6
  call void @llvm.lifetime.end.p0(i64 8, ptr %8) #6
  call void @llvm.lifetime.end.p0(i64 8, ptr %7) #6
  call void @llvm.lifetime.end.p0(i64 8, ptr %6) #6
  call void @llvm.lifetime.end.p0(i64 8, ptr %5) #6
  call void @llvm.lifetime.end.p0(i64 8, ptr %4) #6
  %145 = load ptr, ptr %2, align 8
  ret ptr %145
}