; Function Attrs: nounwind uwtable
define noalias noundef ptr @st__copy(ptr noundef readonly captures(none) %0) local_unnamed_addr #3 {
  %2 = getelementptr inbounds nuw i8, ptr %0, i64 16
  %3 = load i32, ptr %2, align 8, !tbaa !16
  %4 = tail call noalias dereferenceable_or_null(48) ptr @malloc(i64 noundef 48) #13
  %5 = icmp eq ptr %4, null
  br i1 %5, label %.loopexit, label %6

6:                                                ; preds = %1
  tail call void @llvm.memcpy.p0.p0.i64(ptr noundef nonnull align 8 dereferenceable(48) %4, ptr noundef nonnull align 8 dereferenceable(48) %0, i64 40, i1 false), !tbaa.struct !41
  %7 = sext i32 %3 to i64
  %8 = shl nsw i64 %7, 3
  %9 = tail call noalias ptr @malloc(i64 noundef %8) #13
  %10 = getelementptr inbounds nuw i8, ptr %4, i64 40
  store ptr %9, ptr %10, align 8, !tbaa !17
  %11 = icmp eq ptr %9, null
  br i1 %11, label %.loopexit.sink.split, label %.preheader53

.preheader53:                                     ; preds = %6
  %12 = icmp sgt i32 %3, 0
  br i1 %12, label %.lr.ph59, label %.loopexit

.lr.ph59:                                         ; preds = %.preheader53
  %13 = getelementptr inbounds nuw i8, ptr %0, i64 40
  %14 = load ptr, ptr %13, align 8, !tbaa !17
  %wide.trip.count = zext nneg i32 %3 to i64
  br label %15

15:                                               ; preds = %.lr.ph59, %._crit_edge
  %indvars.iv71 = phi i32 [ 1, %.lr.ph59 ], [ %indvars.iv.next72, %._crit_edge ]
  %indvars.iv = phi i64 [ 0, %.lr.ph59 ], [ %indvars.iv.next, %._crit_edge ]
  %16 = getelementptr inbounds nuw ptr, ptr %9, i64 %indvars.iv
  store ptr null, ptr %16, align 8, !tbaa !18
  %17 = getelementptr inbounds nuw ptr, ptr %14, i64 %indvars.iv
  %.04555 = load ptr, ptr %17, align 8, !tbaa !18
  %.not56 = icmp eq ptr %.04555, null
  br i1 %.not56, label %._crit_edge, label %.lr.ph

.lr.ph:                                           ; preds = %15, %27
  %18 = phi ptr [ %19, %27 ], [ null, %15 ]
  %.04557 = phi ptr [ %.045, %27 ], [ %.04555, %15 ]
  %19 = tail call noalias dereferenceable_or_null(24) ptr @malloc(i64 noundef 24) #13
  %20 = icmp eq ptr %19, null
  br i1 %20, label %.preheader, label %27

.preheader:                                       ; preds = %.lr.ph
  %wide.trip.count74 = zext i32 %indvars.iv71 to i64
  br label %21

21:                                               ; preds = %.preheader, %._crit_edge64
  %indvars.iv68 = phi i64 [ 0, %.preheader ], [ %indvars.iv.next69, %._crit_edge64 ]
  %22 = getelementptr inbounds nuw ptr, ptr %9, i64 %indvars.iv68
  %23 = load ptr, ptr %22, align 8, !tbaa !18
  %.not5260 = icmp eq ptr %23, null
  br i1 %.not5260, label %._crit_edge64, label %.lr.ph63

.lr.ph63:                                         ; preds = %21, %.lr.ph63
  %.04661 = phi ptr [ %25, %.lr.ph63 ], [ %23, %21 ]
  %24 = getelementptr inbounds nuw i8, ptr %.04661, i64 16
  %25 = load ptr, ptr %24, align 8, !tbaa !20
  tail call void @free(ptr noundef nonnull %.04661) #14
  %.not52 = icmp eq ptr %25, null
  br i1 %.not52, label %._crit_edge64, label %.lr.ph63, !llvm.loop !45

._crit_edge64:                                    ; preds = %.lr.ph63, %21
  %indvars.iv.next69 = add nuw nsw i64 %indvars.iv68, 1
  %exitcond75.not = icmp eq i64 %indvars.iv.next69, %wide.trip.count74
  br i1 %exitcond75.not, label %26, label %21, !llvm.loop !46

26:                                               ; preds = %._crit_edge64
  tail call void @free(ptr noundef %9) #14
  br label %.loopexit.sink.split

27:                                               ; preds = %.lr.ph
  tail call void @llvm.memcpy.p0.p0.i64(ptr noundef nonnull align 8 dereferenceable(24) %19, ptr noundef nonnull align 8 dereferenceable(24) %.04557, i64 16, i1 false), !tbaa.struct !47
  %28 = getelementptr inbounds nuw i8, ptr %19, i64 16
  store ptr %18, ptr %28, align 8, !tbaa !20
  store ptr %19, ptr %16, align 8, !tbaa !18
  %29 = getelementptr inbounds nuw i8, ptr %.04557, i64 16
  %.045 = load ptr, ptr %29, align 8, !tbaa !18
  %.not = icmp eq ptr %.045, null
  br i1 %.not, label %._crit_edge, label %.lr.ph, !llvm.loop !48

._crit_edge:                                      ; preds = %27, %15
  %indvars.iv.next = add nuw nsw i64 %indvars.iv, 1
  %exitcond.not = icmp eq i64 %indvars.iv.next, %wide.trip.count
  %indvars.iv.next72 = add nuw i32 %indvars.iv71, 1
  br i1 %exitcond.not, label %.loopexit, label %15, !llvm.loop !49

.loopexit.sink.split:                             ; preds = %6, %26
  tail call void @free(ptr noundef %4) #14
  br label %.loopexit

.loopexit:                                        ; preds = %._crit_edge, %.loopexit.sink.split, %.preheader53, %1
  %.0 = phi ptr [ null, %1 ], [ %4, %.preheader53 ], [ null, %.loopexit.sink.split ], [ %4, %._crit_edge ]
  ret ptr %.0
}